target datalayout = "e-m:e-p270:32:32-p271:32:32-p272:64:64-i64:64-i128:128-f80:128-n8:16:32:64-S128"
target triple = "x86_64-pc-linux-gnu"

%struct.mpv_counter_info = type { i64, i32, i32, i32, i32 }
%struct.mpv_decomp_state = type { i32, i8, i64, [0 x %struct.mpv_decomp_kilo] }
%struct.mpv_decomp_kilo = type { i64, ptr }
%struct.mpv = type { i32, i32, i32, i32, i32, i32, i32, i32, i32, [28 x i8] }

; Function Attrs: alwaysinline nounwind uwtable
define internal ptr @get_counter_info(ptr noundef %0) #2 {
  %2 = alloca ptr, align 8
  store ptr %0, ptr %2, align 8
  %3 = load ptr, ptr %2, align 8
  %4 = getelementptr inbounds %struct.mpv, ptr %3, i64 1
  %5 = load ptr, ptr %2, align 8
  %6 = getelementptr inbounds nuw %struct.mpv, ptr %5, i32 0, i32 0
  %7 = load i32, ptr %6, align 32
  %8 = zext i32 %7 to i64
  %9 = mul i64 %8, 64
  %10 = getelementptr inbounds nuw i8, ptr %4, i64 %9
  ret ptr %10
}

; Function Attrs: alwaysinline nounwind uwtable
define internal ptr @get_counter_n(ptr noundef %0, ptr noundef %1, i32 noundef %2) #2 {
  %4 = alloca ptr, align 8
  %5 = alloca ptr, align 8
  %6 = alloca i32, align 4
  store ptr %0, ptr %4, align 8
  store ptr %1, ptr %5, align 8
  store i32 %2, ptr %6, align 4
  %7 = load ptr, ptr %4, align 8
  %8 = load ptr, ptr %5, align 8
  %9 = call ptr @get_counter_info(ptr noundef %8)
  %10 = load i32, ptr %6, align 4
  %11 = zext i32 %10 to i64
  %12 = getelementptr inbounds nuw %struct.mpv_counter_info, ptr %9, i64 %11
  %13 = getelementptr inbounds nuw %struct.mpv_counter_info, ptr %12, i32 0, i32 2
  %14 = load i32, ptr %13, align 4
  %15 = zext i32 %14 to i64
  %16 = getelementptr inbounds nuw i8, ptr %7, i64 %15
  ret ptr %16
}

; Function Attrs: noinline nounwind uwtable
define internal void @normalize_counters(ptr noundef %0, ptr noundef %1) #7 {
  %3 = alloca ptr, align 8
  %4 = alloca ptr, align 8
  %5 = alloca i64, align 8
  %6 = alloca ptr, align 8
  %7 = alloca i32, align 4
  %8 = alloca i32, align 4
  store ptr %0, ptr %3, align 8
  store ptr %1, ptr %4, align 8
  call void @llvm.lifetime.start.p0(i64 8, ptr %5) #11
  %9 = load ptr, ptr %3, align 8
  %10 = getelementptr inbounds nuw %struct.mpv_decomp_state, ptr %9, i32 0, i32 2
  %11 = load i64, ptr %10, align 8
  store i64 %11, ptr %5, align 8
  call void @llvm.lifetime.start.p0(i64 8, ptr %6) #11
  %12 = load ptr, ptr %3, align 8
  %13 = load ptr, ptr %4, align 8
  %14 = call ptr @get_counter_n(ptr noundef %12, ptr noundef %13, i32 noundef 0)
  store ptr %14, ptr %6, align 8
  %15 = load i64, ptr %5, align 8
  %16 = icmp ne i64 %15, 0
  br i1 %16, label %18, label %17

17:                                               ; preds = %2
  store i32 1, ptr %7, align 4
  br label %43

18:                                               ; preds = %2
  call void @llvm.lifetime.start.p0(i64 4, ptr %8) #11
  store i32 0, ptr %8, align 4
  br label %19

19:                                               ; preds = %37, %18
  %20 = load i32, ptr %8, align 4
  %21 = load ptr, ptr %4, align 8
  %22 = getelementptr inbounds nuw %struct.mpv, ptr %21, i32 0, i32 1
  %23 = load i32, ptr %22, align 4
  %24 = icmp ult i32 %20, %23
  br i1 %24, label %26, label %25

25:                                               ; preds = %19
  store i32 2, ptr %7, align 4
  call void @llvm.lifetime.end.p0(i64 4, ptr %8) #11
  br label %40

26:                                               ; preds = %19
  %27 = load i64, ptr %5, align 8
  %28 = load ptr, ptr %6, align 8
  %29 = load i32, ptr %8, align 4
  %30 = zext i32 %29 to i64
  %31 = getelementptr inbounds nuw i64, ptr %28, i64 %30
  %32 = load i64, ptr %31, align 8
  %33 = add i64 %32, %27
  store i64 %33, ptr %31, align 8
  br label %34

34:                                               ; preds = %26
  br label %35

35:                                               ; preds = %34
  br label %36

36:                                               ; preds = %35
  br label %37

37:                                               ; preds = %36
  %38 = load i32, ptr %8, align 4
  %39 = add i32 %38, 1
  store i32 %39, ptr %8, align 4
  br label %19

40:                                               ; preds = %25
  %41 = load ptr, ptr %3, align 8
  %42 = getelementptr inbounds nuw %struct.mpv_decomp_state, ptr %41, i32 0, i32 2
  store i64 0, ptr %42, align 8
  store i32 0, ptr %7, align 4
  br label %43

43:                                               ; preds = %40, %17
  call void @llvm.lifetime.end.p0(i64 8, ptr %6) #11
  call void @llvm.lifetime.end.p0(i64 8, ptr %5) #11
  %44 = load i32, ptr %7, align 4
  switch i32 %44, label %46 [
    i32 0, label %45
    i32 1, label %45
  ]

45:                                               ; preds = %43, %43
  ret void

46:                                               ; preds = %43
  unreachable
}