; Function Attrs: nofree noinline norecurse nosync nounwind memory(argmem: readwrite) uwtable
define internal fastcc void @normalize_counters(ptr noundef captures(none) %0, ptr noundef readonly captures(none) %1) unnamed_addr #10 {
  %3 = getelementptr inbounds nuw i8, ptr %0, i64 8
  %4 = load i64, ptr %3, align 8
  %5 = getelementptr inbounds nuw i8, ptr %1, i64 64
  %6 = load i32, ptr %1, align 32
  %7 = zext i32 %6 to i64
  %8 = shl nuw nsw i64 %7, 6
  %9 = getelementptr inbounds nuw i8, ptr %5, i64 %8
  %10 = getelementptr inbounds nuw i8, ptr %9, i64 12
  %11 = load i32, ptr %10, align 4
  %12 = zext i32 %11 to i64
  %13 = getelementptr inbounds nuw i8, ptr %0, i64 %12
  %.not = icmp eq i64 %4, 0
  br i1 %.not, label %22, label %.preheader

.preheader:                                       ; preds = %2
  %14 = getelementptr inbounds nuw i8, ptr %1, i64 4
  %15 = load i32, ptr %14, align 4
  %.not12 = icmp eq i32 %15, 0
  br i1 %.not12, label %._crit_edge, label %.lr.ph

._crit_edge:                                      ; preds = %.lr.ph, %.preheader
  store i64 0, ptr %3, align 8
  br label %22

.lr.ph:                                           ; preds = %.preheader, %.lr.ph
  %indvars.iv = phi i64 [ %indvars.iv.next, %.lr.ph ], [ 0, %.preheader ]
  %16 = getelementptr inbounds nuw i64, ptr %13, i64 %indvars.iv
  %17 = load i64, ptr %16, align 8
  %18 = add i64 %17, %4
  store i64 %18, ptr %16, align 8
  %indvars.iv.next = add nuw nsw i64 %indvars.iv, 1
  %19 = load i32, ptr %14, align 4
  %20 = zext i32 %19 to i64
  %21 = icmp samesign ult i64 %indvars.iv.next, %20
  br i1 %21, label %.lr.ph, label %._crit_edge

22:                                               ; preds = %2, %._crit_edge
  ret void
}